; Function Attrs: null_pointer_is_valid sspstrong uwtable
define internal noundef i32 @parse_CNatLanguageRestriction(ptr noundef %0, i32 noundef %1, ptr noundef %2, ptr noundef %3, ptr noundef %4, ptr readnone captures(none) %5, ...) unnamed_addr #0 {
  %7 = alloca ptr, align 8
  %8 = alloca [1 x %struct.__va_list_tag], align 16
  call void @llvm.lifetime.start.p0(i64 8, ptr nonnull %7) #11
  call void @llvm.lifetime.start.p0(i64 24, ptr nonnull %8) #11
  call void @llvm.va_start.p0(ptr nonnull %8)
  %9 = call ptr @wmem_packet_scope()
  %10 = call noalias ptr @wmem_strdup_vprintf(ptr noundef %9, ptr noundef nonnull @.str.1262, ptr noundef nonnull %8)
  call void @llvm.va_end.p0(ptr nonnull %8)
  %11 = load i32, ptr @ett_CNatLanguageRestriction, align 4
  %12 = call ptr @proto_tree_add_subtree(ptr noundef %2, ptr noundef %0, i32 noundef %1, i32 noundef 0, i32 noundef %11, ptr noundef nonnull %7, ptr noundef %10)
  %13 = call i32 (ptr, i32, ptr, ptr, ptr, ptr, ...) @parse_CFullPropSpec(ptr noundef %0, i32 noundef %1, ptr noundef %12, ptr noundef %3, ptr noundef %4, ptr noundef nonnull @.str.1288)
  %14 = call i32 (ptr, i32, i32, ptr, ptr, ...) @parse_padding(ptr noundef %0, i32 noundef %13, i32 noundef 4, ptr noundef %3, ptr noundef nonnull @.str.1322)
  %15 = call i32 @tvb_get_letohl(ptr noundef %0, i32 noundef %14)
  %16 = load i32, ptr @hf_mswsp_natlangrestrict_cc, align 4
  %17 = call ptr @proto_tree_add_uint(ptr noundef %12, i32 noundef %16, ptr noundef %0, i32 noundef %14, i32 noundef 4, i32 noundef %15)
  %18 = add i32 %14, 4
  %19 = load i32, ptr @hf_mswsp_natlangrestrict_phrase, align 4
  %20 = shl i32 %15, 1
  %21 = call ptr @wmem_packet_scope()
  %22 = getelementptr inbounds nuw i8, ptr %4, i64 32
  %23 = call ptr @proto_tree_add_item_ret_string(ptr noundef %12, i32 noundef %19, ptr noundef %0, i32 noundef %18, i32 noundef %20, i32 noundef -2147483642, ptr noundef %21, ptr noundef nonnull %22)
  %24 = add i32 %20, %18
  %25 = call i32 (ptr, i32, i32, ptr, ptr, ...) @parse_padding(ptr noundef %0, i32 noundef %24, i32 noundef 4, ptr noundef %3, ptr noundef nonnull @.str.1290)
  %26 = call i32 @tvb_get_letohl(ptr noundef %0, i32 noundef %25)
  %27 = getelementptr inbounds nuw i8, ptr %4, i64 40
  store i32 %26, ptr %27, align 8
  %28 = call i32 @tvb_get_letohl(ptr noundef %0, i32 noundef %25)
  %29 = load i32, ptr @hf_mswsp_lcid, align 4
  %30 = call ptr (ptr, i32, ptr, i32, i32, i32, ptr, ...) @proto_tree_add_uint_format(ptr noundef %12, i32 noundef %29, ptr noundef %0, i32 noundef %25, i32 noundef 4, i32 noundef %28, ptr noundef nonnull @.str.1317, ptr noundef nonnull @.str.83, i32 noundef %28)
  %31 = load i32, ptr @ett_LCID, align 4
  %32 = call ptr @proto_item_add_subtree(ptr noundef %30, i32 noundef %31)
  %33 = load i32, ptr @hf_mswsp_lcid_langid, align 4
  %34 = add i32 %25, 2
  %35 = call ptr @proto_tree_add_uint(ptr noundef %32, i32 noundef %33, ptr noundef %0, i32 noundef %34, i32 noundef 2, i32 noundef %28)
  %36 = load i32, ptr @hf_mswsp_lcid_sortid, align 4
  %37 = add i32 %25, 1
  %38 = lshr i32 %28, 16
  %39 = and i32 %38, 15
  %40 = call ptr @proto_tree_add_uint(ptr noundef %32, i32 noundef %36, ptr noundef %0, i32 noundef %37, i32 noundef 1, i32 noundef %39)
  %41 = add i32 %25, 4
  %42 = load ptr, ptr %7, align 8
  call void @proto_item_set_end(ptr noundef %42, ptr noundef %0, i32 noundef %41)
  call void @llvm.lifetime.end.p0(i64 24, ptr nonnull %8) #11
  call void @llvm.lifetime.end.p0(i64 8, ptr nonnull %7) #11
  ret i32 %41
}